target datalayout = "e-m:e-p270:32:32-p271:32:32-p272:64:64-i64:64-i128:128-f80:128-n8:16:32:64-S128"
target triple = "x86_64-pc-linux-gnu"

%struct.MoveOutDetector = type { i8 }
%struct.OptionalHolder.1308 = type { %"class.boost::optional.1309" }
%"class.boost::optional.1309" = type { %"class.boost::optional_detail::optional_base.1310" }
%"class.boost::optional_detail::optional_base.1310" = type { i8, %"class.boost::optional_detail::aligned_storage.1311" }
%"class.boost::optional_detail::aligned_storage.1311" = type { %"union.boost::optional_detail::aligned_storage<MoveOutDetector>::dummy_u" }
%"union.boost::optional_detail::aligned_storage<MoveOutDetector>::dummy_u" = type { [1 x i8] }
%union.anon.1329 = type { ptr }

; Function Attrs: mustprogress nounwind uwtable
define internal noundef ptr @_ZNK5boost15optional_detail15aligned_storageIZ18test_submodule_stlRN8pybind117module_EE15MoveOutDetectorE7addressEv(ptr noundef nonnull align 1 dereferenceable(1) %0) #0 align 2 {
  %2 = alloca ptr, align 8
  store ptr %0, ptr %2, align 8
  %3 = load ptr, ptr %2, align 8
  %4 = getelementptr inbounds %"class.boost::optional_detail::aligned_storage.1311", ptr %3, i32 0, i32 0
  ret ptr %4
}

; Function Attrs: mustprogress uwtable
define internal noundef ptr @_ZNK5boost15optional_detail15aligned_storageIZ18test_submodule_stlRN8pybind117module_EE15MoveOutDetectorE7ptr_refEv(ptr noundef nonnull align 1 dereferenceable(1) %0) #1 align 2 {
  %2 = alloca ptr, align 8
  %3 = alloca %union.anon.1329, align 8
  store ptr %0, ptr %2, align 8
  %4 = load ptr, ptr %2, align 8
  %5 = call noundef ptr @_ZNK5boost15optional_detail15aligned_storageIZ18test_submodule_stlRN8pybind117module_EE15MoveOutDetectorE7addressEv(ptr noundef nonnull align 1 dereferenceable(1) %4)
  store ptr %5, ptr %3, align 8
  %6 = load ptr, ptr %3, align 8
  ret ptr %6
}

; Function Attrs: mustprogress uwtable
define internal noundef ptr @_ZNK5boost15optional_detail13optional_baseIZ18test_submodule_stlRN8pybind117module_EE15MoveOutDetectorE12get_ptr_implEv(ptr noundef nonnull align 1 dereferenceable(2) %0) #1 align 2 {
  %2 = alloca ptr, align 8
  store ptr %0, ptr %2, align 8
  %3 = load ptr, ptr %2, align 8
  %4 = getelementptr inbounds %"class.boost::optional_detail::optional_base.1310", ptr %3, i32 0, i32 1
  %5 = call noundef ptr @_ZNK5boost15optional_detail15aligned_storageIZ18test_submodule_stlRN8pybind117module_EE15MoveOutDetectorE7ptr_refEv(ptr noundef nonnull align 1 dereferenceable(1) %4)
  ret ptr %5
}

; Function Attrs: mustprogress nounwind uwtable
define internal noundef zeroext i1 @_ZNK5boost15optional_detail13optional_baseIZ18test_submodule_stlRN8pybind117module_EE15MoveOutDetectorE14is_initializedEv(ptr noundef nonnull align 1 dereferenceable(2) %0) #0 align 2 {
  %2 = alloca ptr, align 8
  store ptr %0, ptr %2, align 8
  %3 = load ptr, ptr %2, align 8
  %4 = getelementptr inbounds %"class.boost::optional_detail::optional_base.1310", ptr %3, i32 0, i32 0
  %5 = load i8, ptr %4, align 1
  %6 = trunc i8 %5 to i1
  ret i1 %6
}

; Function Attrs: mustprogress uwtable
define internal noundef ptr @_ZNK5boost8optionalIZ18test_submodule_stlRN8pybind117module_EE15MoveOutDetectorEptEv(ptr noundef nonnull align 1 dereferenceable(2) %0) #1 align 2 {
  %2 = alloca ptr, align 8
  store ptr %0, ptr %2, align 8
  %3 = load ptr, ptr %2, align 8
  %4 = call noundef ptr @_ZNK5boost15optional_detail13optional_baseIZ18test_submodule_stlRN8pybind117module_EE15MoveOutDetectorE12get_ptr_implEv(ptr noundef nonnull align 1 dereferenceable(2) %3)
  ret ptr %4
}

; Function Attrs: mustprogress nounwind uwtable
define internal noundef zeroext i1 @_ZNK5boost8optionalIZ18test_submodule_stlRN8pybind117module_EE15MoveOutDetectorEntEv(ptr noundef nonnull align 1 dereferenceable(2) %0) #0 align 2 {
  %2 = alloca ptr, align 8
  store ptr %0, ptr %2, align 8
  %3 = load ptr, ptr %2, align 8
  %4 = call noundef zeroext i1 @_ZNK5boost15optional_detail13optional_baseIZ18test_submodule_stlRN8pybind117module_EE15MoveOutDetectorE14is_initializedEv(ptr noundef nonnull align 1 dereferenceable(2) %3) #6
  %5 = xor i1 %4, true
  ret i1 %5
}

; Function Attrs: mustprogress uwtable
define internal noundef zeroext i1 @_ZNK14OptionalHolderIN5boost8optionalEZ18test_submodule_stlRN8pybind117module_EE15MoveOutDetectorE18member_initializedEv(ptr noundef nonnull align 1 dereferenceable(2) %0) #1 align 2 {
  %2 = alloca ptr, align 8
  %3 = alloca ptr, align 8
  store ptr %0, ptr %3, align 8
  %4 = load ptr, ptr %3, align 8
  %5 = getelementptr inbounds %struct.OptionalHolder.1308, ptr %4, i32 0, i32 0
  store ptr %5, ptr %2, align 8
  %6 = load ptr, ptr %2, align 8
  %7 = call noundef zeroext i1 @_ZNK5boost8optionalIZ18test_submodule_stlRN8pybind117module_EE15MoveOutDetectorEntEv(ptr noundef nonnull align 1 dereferenceable(2) %6) #6
  %8 = xor i1 %7, true
  br i1 %8, label %9, label %15

9:                                                ; preds = %1
  %10 = getelementptr inbounds %struct.OptionalHolder.1308, ptr %4, i32 0, i32 0
  %11 = call noundef ptr @_ZNK5boost8optionalIZ18test_submodule_stlRN8pybind117module_EE15MoveOutDetectorEptEv(ptr noundef nonnull align 1 dereferenceable(2) %10)
  %12 = getelementptr inbounds %struct.MoveOutDetector, ptr %11, i32 0, i32 0
  %13 = load i8, ptr %12, align 1
  %14 = trunc i8 %13 to i1
  br label %15

15:                                               ; preds = %9, %1
  %16 = phi i1 [ false, %1 ], [ %14, %9 ]
  ret i1 %16
}