; Function Attrs: mustprogress nofree norecurse nosync nounwind willreturn memory(argmem: read) uwtable
define internal noundef zeroext i1 @_ZNK14OptionalHolderIN5boost8optionalEZ18test_submodule_stlRN8pybind117module_EE15MoveOutDetectorE18member_initializedEv(ptr nocapture noundef nonnull readonly align 1 dereferenceable(2) %0) #7 align 2 {
  %.val = load i8, ptr %0, align 1
  %2 = and i8 %.val, 1
  %.not.i = icmp ne i8 %2, 0
  %3 = getelementptr inbounds i8, ptr %0, i64 1
  %4 = load i8, ptr %3, align 1
  %5 = and i8 %4, 1
  %6 = icmp ne i8 %5, 0
  %7 = select i1 %.not.i, i1 %6, i1 false
  ret i1 %7
}